target datalayout = "e-m:e-p270:32:32-p271:32:32-p272:64:64-i64:64-i128:128-f80:128-n8:16:32:64-S128"
target triple = "x86_64-pc-linux-gnu"

%struct._zend_executor_globals = type { %struct._zval_struct, %struct._zval_struct, [32 x ptr], ptr, ptr, %struct._zend_array, %struct._zend_array, ptr, i32, i32, ptr, ptr, ptr, ptr, ptr, ptr, i64, ptr, ptr, i32, i32, i64, i32, i32, i32, i8, i8, %struct.zend_atomic_bool_s, %struct.zend_atomic_bool_s, ptr, i64, ptr, ptr, %struct._zend_array, %struct._zend_array, i32, i8, %struct._zval_struct, %struct._zval_struct, %struct._zend_stack, %struct._zend_stack, %struct._zend_stack, ptr, i32, i32, i64, ptr, ptr, ptr, %struct._zend_objects_store, ptr, ptr, ptr, [3 x %struct._zend_op], ptr, i8, i8, i64, i32, i32, ptr, [16 x %struct._HashTableIterator], ptr, %union._zend_function, %struct._zend_op, %struct._zend_array, i64, %struct.zend_get_gc_buffer, ptr, ptr, ptr, i64, i8, i32, ptr, ptr, i64, %struct._zend_call_stack, i64, i64, [6 x ptr] }
%struct.zend_atomic_bool_s = type { i8 }
%struct._zval_struct = type { %union._zend_value, %union.anon, %union.anon.2 }
%union._zend_value = type { i64 }
%union.anon = type { i32 }
%union.anon.2 = type { i32 }
%struct._zend_stack = type { i32, i32, i32, ptr }
%struct._zend_objects_store = type { ptr, i32, i32, i32 }
%struct._HashTableIterator = type { ptr, i32, i32 }
%union._zend_function = type { %struct._zend_op_array }
%struct._zend_op_array = type { i8, [3 x i8], i32, ptr, ptr, ptr, i32, i32, ptr, ptr, ptr, ptr, i32, i32, i32, i32, ptr, ptr, ptr, ptr, ptr, i32, i32, ptr, ptr, ptr, i32, i32, i32, i32, ptr, ptr, [6 x ptr] }
%struct._zend_op = type { ptr, %union._znode_op, %union._znode_op, %union._znode_op, i32, i32, i8, i8, i8, i8 }
%union._znode_op = type { i32 }
%struct._zend_array = type { %struct._zend_refcounted_h, %union.anon.4, i32, %union.anon.6, i32, i32, i32, i32, i64, ptr }
%struct._zend_refcounted_h = type { i32, %union.anon.3 }
%union.anon.3 = type { i32 }
%union.anon.4 = type { i32 }
%union.anon.6 = type { ptr }
%struct.zend_get_gc_buffer = type { ptr, ptr, ptr }
%struct._zend_call_stack = type { ptr, i64 }
%struct._zend_execute_data = type { ptr, ptr, ptr, ptr, %struct._zval_struct, ptr, ptr, ptr, ptr }
%struct._xmlNode = type { ptr, i32, ptr, ptr, ptr, ptr, ptr, ptr, ptr, ptr, ptr, ptr, ptr, ptr, i16, i16 }
%struct._xmlNs = type { ptr, i32, ptr, ptr, ptr, ptr }
%struct._zend_string = type { %struct._zend_refcounted_h, i64, i64, [1 x i8] }
%struct._xmlAttr = type { ptr, i32, ptr, ptr, ptr, ptr, ptr, ptr, ptr, ptr, i32, ptr }
%struct._dom_object = type { ptr, ptr, ptr, %struct._zend_object }
%struct._zend_object = type { %struct._zend_refcounted_h, i32, ptr, ptr, ptr, [1 x %struct._zval_struct] }
%struct._zend_class_entry = type { i8, ptr, %union.anon.8, i32, i32, i32, i32, ptr, ptr, ptr, %struct._zend_array, %struct._zend_array, %struct._zend_array, ptr, ptr, ptr, ptr, ptr, ptr, ptr, ptr, ptr, ptr, ptr, ptr, ptr, ptr, ptr, ptr, ptr, ptr, ptr, %union.anon.9, ptr, ptr, ptr, ptr, i32, i32, %union.anon.10, ptr, ptr, ptr, ptr, i32, ptr, ptr, %union.anon.11 }
%union.anon.8 = type { ptr }
%union.anon.9 = type { ptr }
%union.anon.10 = type { ptr }
%union.anon.11 = type { %struct.anon.12 }
%struct.anon.12 = type { ptr, i32, i32 }
%struct._php_libxml_node_ptr = type { ptr, i32, ptr }

@executor_globals = external global %struct._zend_executor_globals, align 8
@.str.5 = private unnamed_addr constant [18 x i8] c"Couldn't fetch %s\00", align 1
@.str.6 = private unnamed_addr constant [6 x i8] c"xmlns\00", align 1

; Function Attrs: nounwind uwtable
define internal ptr @php_dom_obj_from_obj(ptr noundef %0) #0 {
  %2 = alloca ptr, align 8
  store ptr %0, ptr %2, align 8
  %3 = load ptr, ptr %2, align 8
  %4 = getelementptr inbounds i8, ptr %3, i64 -24
  ret ptr %4
}

; Function Attrs: nounwind uwtable
define hidden void @zim_DOMElement_getAttributeNames(ptr noundef %0, ptr noundef %1) #0 {
  %3 = alloca i32, align 4
  %4 = alloca i32, align 4
  %5 = alloca ptr, align 8
  %6 = alloca ptr, align 8
  %7 = alloca ptr, align 8
  %8 = alloca ptr, align 8
  %9 = alloca ptr, align 8
  %10 = alloca %struct._zval_struct, align 8
  %11 = alloca ptr, align 8
  %12 = alloca ptr, align 8
  %13 = alloca ptr, align 8
  %14 = alloca ptr, align 8
  %15 = alloca ptr, align 8
  %16 = alloca ptr, align 8
  %17 = alloca ptr, align 8
  %18 = alloca ptr, align 8
  %19 = alloca ptr, align 8
  %20 = alloca ptr, align 8
  store ptr %0, ptr %5, align 8
  store ptr %1, ptr %6, align 8
  %21 = load ptr, ptr %5, align 8
  %22 = getelementptr inbounds %struct._zend_execute_data, ptr %21, i32 0, i32 4
  %23 = getelementptr inbounds %struct._zval_struct, ptr %22, i32 0, i32 2
  %24 = load i32, ptr %23, align 4
  %25 = icmp eq i32 %24, 0
  %26 = xor i1 %25, true
  %27 = xor i1 %26, true
  %28 = zext i1 %27 to i32
  %29 = sext i32 %28 to i64
  %30 = icmp ne i64 %29, 0
  br i1 %30, label %31, label %32

31:                                               ; preds = %2
  br label %33

32:                                               ; preds = %2
  call void @zend_wrong_parameters_none_error()
  br label %33

33:                                               ; preds = %32, %31
  %34 = phi i32 [ 0, %31 ], [ -1, %32 ]
  %35 = icmp eq i32 %34, -1
  br i1 %35, label %36, label %41

36:                                               ; preds = %33
  br label %37

37:                                               ; preds = %36
  %38 = load ptr, ptr getelementptr inbounds (%struct._zend_executor_globals, ptr @executor_globals, i32 0, i32 50), align 8
  %39 = icmp ne ptr %38, null
  call void @llvm.assume(i1 %39)
  br label %157

40:                                               ; No predecessors!
  br label %41

41:                                               ; preds = %40, %33
  %42 = load ptr, ptr %5, align 8
  %43 = getelementptr inbounds %struct._zend_execute_data, ptr %42, i32 0, i32 4
  store ptr %43, ptr %7, align 8
  %44 = load ptr, ptr %7, align 8
  %45 = getelementptr inbounds %struct._zval_struct, ptr %44, i32 0, i32 0
  %46 = load ptr, ptr %45, align 8
  %47 = call ptr @php_dom_obj_from_obj(ptr noundef %46)
  store ptr %47, ptr %9, align 8
  %48 = load ptr, ptr %9, align 8
  %49 = getelementptr inbounds %struct._dom_object, ptr %48, i32 0, i32 0
  %50 = load ptr, ptr %49, align 8
  %51 = icmp eq ptr %50, null
  %52 = xor i1 %51, true
  %53 = xor i1 %52, true
  %54 = zext i1 %53 to i32
  %55 = sext i32 %54 to i64
  %56 = icmp ne i64 %55, 0
  br i1 %56, label %57, label %70

57:                                               ; preds = %41
  %58 = load ptr, ptr %9, align 8
  %59 = getelementptr inbounds %struct._dom_object, ptr %58, i32 0, i32 3
  %60 = getelementptr inbounds %struct._zend_object, ptr %59, i32 0, i32 2
  %61 = load ptr, ptr %60, align 8
  %62 = getelementptr inbounds %struct._zend_class_entry, ptr %61, i32 0, i32 1
  %63 = load ptr, ptr %62, align 8
  %64 = getelementptr inbounds %struct._zend_string, ptr %63, i32 0, i32 3
  %65 = getelementptr inbounds [1 x i8], ptr %64, i64 0, i64 0
  call void (ptr, ptr, ...) @zend_throw_error(ptr noundef null, ptr noundef @.str.5, ptr noundef %65)
  br label %66

66:                                               ; preds = %57
  %67 = load ptr, ptr getelementptr inbounds (%struct._zend_executor_globals, ptr @executor_globals, i32 0, i32 50), align 8
  %68 = icmp ne ptr %67, null
  call void @llvm.assume(i1 %68)
  br label %157

69:                                               ; No predecessors!
  br label %70

70:                                               ; preds = %69, %41
  %71 = load ptr, ptr %9, align 8
  %72 = getelementptr inbounds %struct._dom_object, ptr %71, i32 0, i32 0
  %73 = load ptr, ptr %72, align 8
  %74 = getelementptr inbounds %struct._php_libxml_node_ptr, ptr %73, i32 0, i32 0
  %75 = load ptr, ptr %74, align 8
  store ptr %75, ptr %8, align 8
  br label %76

76:                                               ; preds = %70
  %77 = call ptr @_zend_new_array_0()
  store ptr %77, ptr %11, align 8
  %78 = load ptr, ptr %6, align 8
  store ptr %78, ptr %12, align 8
  %79 = load ptr, ptr %11, align 8
  %80 = load ptr, ptr %12, align 8
  %81 = getelementptr inbounds %struct._zval_struct, ptr %80, i32 0, i32 0
  store ptr %79, ptr %81, align 8
  %82 = load ptr, ptr %12, align 8
  %83 = getelementptr inbounds %struct._zval_struct, ptr %82, i32 0, i32 1
  store i32 775, ptr %83, align 8
  br label %84

84:                                               ; preds = %76
  %85 = load ptr, ptr %6, align 8
  %86 = getelementptr inbounds %struct._zval_struct, ptr %85, i32 0, i32 0
  %87 = load ptr, ptr %86, align 8
  store ptr %87, ptr %13, align 8
  %88 = load ptr, ptr %13, align 8
  call void @zend_hash_real_init_packed(ptr noundef %88)
  %89 = load ptr, ptr %8, align 8
  %90 = getelementptr inbounds %struct._xmlNode, ptr %89, i32 0, i32 12
  %91 = load ptr, ptr %90, align 8
  store ptr %91, ptr %14, align 8
  br label %92

92:                                               ; preds = %121, %84
  %93 = load ptr, ptr %14, align 8
  %94 = icmp ne ptr %93, null
  br i1 %94, label %95, label %125

95:                                               ; preds = %92
  %96 = load ptr, ptr %14, align 8
  %97 = getelementptr inbounds %struct._xmlNs, ptr %96, i32 0, i32 3
  %98 = load ptr, ptr %97, align 8
  store ptr %98, ptr %15, align 8
  br label %99

99:                                               ; preds = %95
  store ptr %10, ptr %16, align 8
  %100 = load ptr, ptr %15, align 8
  %101 = call i64 @strlen(ptr noundef %100) #8
  %102 = load ptr, ptr %15, align 8
  %103 = call ptr @dom_node_concatenated_name_helper(i64 noundef %101, ptr noundef %102, i64 noundef 5, ptr noundef @.str.6)
  store ptr %103, ptr %17, align 8
  %104 = load ptr, ptr %17, align 8
  %105 = load ptr, ptr %16, align 8
  %106 = getelementptr inbounds %struct._zval_struct, ptr %105, i32 0, i32 0
  store ptr %104, ptr %106, align 8
  %107 = load ptr, ptr %17, align 8
  %108 = getelementptr inbounds %struct._zend_string, ptr %107, i32 0, i32 0
  %109 = getelementptr inbounds %struct._zend_refcounted_h, ptr %108, i32 0, i32 1
  %110 = load i32, ptr %109, align 4
  store i32 %110, ptr %3, align 4
  %111 = load i32, ptr %3, align 4
  %112 = and i32 %111, 1008
  %113 = and i32 %112, 64
  %114 = icmp ne i32 %113, 0
  %115 = select i1 %114, i32 6, i32 262
  %116 = load ptr, ptr %16, align 8
  %117 = getelementptr inbounds %struct._zval_struct, ptr %116, i32 0, i32 1
  store i32 %115, ptr %117, align 8
  br label %118

118:                                              ; preds = %99
  %119 = load ptr, ptr %13, align 8
  %120 = call ptr @zend_hash_next_index_insert(ptr noundef %119, ptr noundef %10)
  br label %121

121:                                              ; preds = %118
  %122 = load ptr, ptr %14, align 8
  %123 = getelementptr inbounds %struct._xmlNs, ptr %122, i32 0, i32 0
  %124 = load ptr, ptr %123, align 8
  store ptr %124, ptr %14, align 8
  br label %92

125:                                              ; preds = %92
  %126 = load ptr, ptr %8, align 8
  %127 = getelementptr inbounds %struct._xmlNode, ptr %126, i32 0, i32 11
  %128 = load ptr, ptr %127, align 8
  store ptr %128, ptr %18, align 8
  br label %129

129:                                              ; preds = %153, %125
  %130 = load ptr, ptr %18, align 8
  %131 = icmp ne ptr %130, null
  br i1 %131, label %132, label %157

132:                                              ; preds = %129
  br label %133

133:                                              ; preds = %132
  store ptr %10, ptr %19, align 8
  %134 = load ptr, ptr %18, align 8
  %135 = call ptr @dom_node_get_node_name_attribute_or_element(ptr noundef %134)
  store ptr %135, ptr %20, align 8
  %136 = load ptr, ptr %20, align 8
  %137 = load ptr, ptr %19, align 8
  %138 = getelementptr inbounds %struct._zval_struct, ptr %137, i32 0, i32 0
  store ptr %136, ptr %138, align 8
  %139 = load ptr, ptr %20, align 8
  %140 = getelementptr inbounds %struct._zend_string, ptr %139, i32 0, i32 0
  %141 = getelementptr inbounds %struct._zend_refcounted_h, ptr %140, i32 0, i32 1
  %142 = load i32, ptr %141, align 4
  store i32 %142, ptr %4, align 4
  %143 = load i32, ptr %4, align 4
  %144 = and i32 %143, 1008
  %145 = and i32 %144, 64
  %146 = icmp ne i32 %145, 0
  %147 = select i1 %146, i32 6, i32 262
  %148 = load ptr, ptr %19, align 8
  %149 = getelementptr inbounds %struct._zval_struct, ptr %148, i32 0, i32 1
  store i32 %147, ptr %149, align 8
  br label %150

150:                                              ; preds = %133
  %151 = load ptr, ptr %13, align 8
  %152 = call ptr @zend_hash_next_index_insert(ptr noundef %151, ptr noundef %10)
  br label %153

153:                                              ; preds = %150
  %154 = load ptr, ptr %18, align 8
  %155 = getelementptr inbounds %struct._xmlAttr, ptr %154, i32 0, i32 6
  %156 = load ptr, ptr %155, align 8
  store ptr %156, ptr %18, align 8
  br label %129

157:                                              ; preds = %129, %66, %37
  ret void
}