; Function Attrs: nounwind uwtable
define hidden void @zim_DOMElement_getAttributeNames(ptr nocapture noundef readonly %0, ptr nocapture noundef writeonly %1) local_unnamed_addr #0 {
  %3 = alloca %struct._zval_struct, align 8
  %4 = getelementptr inbounds i8, ptr %0, i64 44
  %5 = load i32, ptr %4, align 4
  %.not = icmp eq i32 %5, 0
  br i1 %.not, label %.critedge, label %6

6:                                                ; preds = %2
  tail call void @zend_wrong_parameters_none_error() #8
  br label %.loopexit.sink.split

.critedge:                                        ; preds = %2
  %7 = getelementptr inbounds i8, ptr %0, i64 32
  %8 = load ptr, ptr %7, align 8
  %9 = getelementptr inbounds i8, ptr %8, i64 -24
  %10 = load ptr, ptr %9, align 8
  %11 = icmp eq ptr %10, null
  br i1 %11, label %12, label %18

12:                                               ; preds = %.critedge
  %13 = getelementptr inbounds i8, ptr %8, i64 16
  %14 = load ptr, ptr %13, align 8
  %15 = getelementptr inbounds i8, ptr %14, i64 8
  %16 = load ptr, ptr %15, align 8
  %17 = getelementptr inbounds i8, ptr %16, i64 24
  tail call void (ptr, ptr, ...) @zend_throw_error(ptr noundef null, ptr noundef nonnull @.str.5, ptr noundef nonnull %17) #8
  br label %.loopexit.sink.split

18:                                               ; preds = %.critedge
  %19 = load ptr, ptr %10, align 8
  %20 = tail call ptr @_zend_new_array_0() #8
  store ptr %20, ptr %1, align 8
  %21 = getelementptr inbounds i8, ptr %1, i64 8
  store i32 775, ptr %21, align 8
  tail call void @zend_hash_real_init_packed(ptr noundef %20) #8
  %22 = getelementptr inbounds i8, ptr %19, i64 96
  %.039 = load ptr, ptr %22, align 8
  %.not3540 = icmp eq ptr %.039, null
  br i1 %.not3540, label %._crit_edge, label %.lr.ph

.lr.ph:                                           ; preds = %18
  %23 = getelementptr inbounds i8, ptr %3, i64 8
  br label %24

24:                                               ; preds = %.lr.ph, %24
  %.041 = phi ptr [ %.039, %.lr.ph ], [ %.0, %24 ]
  %25 = getelementptr inbounds i8, ptr %.041, i64 24
  %26 = load ptr, ptr %25, align 8
  %27 = call i64 @strlen(ptr noundef nonnull dereferenceable(1) %26) #9
  %28 = call ptr @dom_node_concatenated_name_helper(i64 noundef %27, ptr noundef %26, i64 noundef 5, ptr noundef nonnull @.str.6) #8
  store ptr %28, ptr %3, align 8
  %29 = getelementptr inbounds i8, ptr %28, i64 4
  %30 = load i32, ptr %29, align 4
  %31 = and i32 %30, 64
  %.not38 = icmp eq i32 %31, 0
  %32 = select i1 %.not38, i32 262, i32 6
  store i32 %32, ptr %23, align 8
  %33 = call ptr @zend_hash_next_index_insert(ptr noundef %20, ptr noundef nonnull %3) #8
  %.0 = load ptr, ptr %.041, align 8
  %.not35 = icmp eq ptr %.0, null
  br i1 %.not35, label %._crit_edge, label %24

._crit_edge:                                      ; preds = %24, %18
  %34 = getelementptr inbounds i8, ptr %19, i64 88
  %.03342 = load ptr, ptr %34, align 8
  %.not3643 = icmp eq ptr %.03342, null
  br i1 %.not3643, label %.loopexit, label %.lr.ph46

.lr.ph46:                                         ; preds = %._crit_edge
  %35 = getelementptr inbounds i8, ptr %3, i64 8
  br label %36

36:                                               ; preds = %.lr.ph46, %36
  %.03344 = phi ptr [ %.03342, %.lr.ph46 ], [ %.033, %36 ]
  %37 = call ptr @dom_node_get_node_name_attribute_or_element(ptr noundef nonnull %.03344) #8
  store ptr %37, ptr %3, align 8
  %38 = getelementptr inbounds i8, ptr %37, i64 4
  %39 = load i32, ptr %38, align 4
  %40 = and i32 %39, 64
  %.not37 = icmp eq i32 %40, 0
  %41 = select i1 %.not37, i32 262, i32 6
  store i32 %41, ptr %35, align 8
  %42 = call ptr @zend_hash_next_index_insert(ptr noundef %20, ptr noundef nonnull %3) #8
  %43 = getelementptr inbounds i8, ptr %.03344, i64 48
  %.033 = load ptr, ptr %43, align 8
  %.not36 = icmp eq ptr %.033, null
  br i1 %.not36, label %.loopexit, label %36

.loopexit.sink.split:                             ; preds = %6, %12
  %44 = load ptr, ptr getelementptr inbounds (%struct._zend_executor_globals, ptr @executor_globals, i64 0, i32 50), align 8
  %45 = icmp ne ptr %44, null
  tail call void @llvm.assume(i1 %45)
  br label %.loopexit

.loopexit:                                        ; preds = %36, %.loopexit.sink.split, %._crit_edge
  ret void
}